target datalayout = "e-m:e-p270:32:32-p271:32:32-p272:64:64-i64:64-i128:128-f80:128-n8:16:32:64-S128"
target triple = "x86_64-pc-linux-gnu"

%struct.anon.5 = type { i32, i16 }

@.str.2 = private unnamed_addr constant [24 x i8] c"../openssl/ssl/t1_lib.c\00", align 1
@__func__.tls1_set_groups = private unnamed_addr constant [16 x i8] c"tls1_set_groups\00", align 1

; Function Attrs: nounwind uwtable
define zeroext i16 @tls1_nid2group_id(i32 noundef %0) #1 {
  %2 = alloca i16, align 2
  %3 = alloca i32, align 4
  %4 = alloca i64, align 8
  %5 = alloca i32, align 4
  store i32 %0, ptr %3, align 4, !tbaa !128
  call void @llvm.lifetime.start.p0(i64 8, ptr %4) #8
  store i64 0, ptr %4, align 8, !tbaa !3
  br label %6

6:                                                ; preds = %22, %1
  %7 = load i64, ptr %4, align 8, !tbaa !3
  %8 = icmp ult i64 %7, 45
  br i1 %8, label %9, label %25

9:                                                ; preds = %6
  %10 = load i64, ptr %4, align 8, !tbaa !3
  %11 = getelementptr inbounds nuw [45 x %struct.anon.5], ptr @nid_to_group, i64 0, i64 %10
  %12 = getelementptr inbounds nuw %struct.anon.5, ptr %11, i32 0, i32 0
  %13 = load i32, ptr %12, align 8, !tbaa !131
  %14 = load i32, ptr %3, align 4, !tbaa !128
  %15 = icmp eq i32 %13, %14
  br i1 %15, label %16, label %21

16:                                               ; preds = %9
  %17 = load i64, ptr %4, align 8, !tbaa !3
  %18 = getelementptr inbounds nuw [45 x %struct.anon.5], ptr @nid_to_group, i64 0, i64 %17
  %19 = getelementptr inbounds nuw %struct.anon.5, ptr %18, i32 0, i32 1
  %20 = load i16, ptr %19, align 4, !tbaa !129
  store i16 %20, ptr %2, align 2
  store i32 1, ptr %5, align 4
  br label %26

21:                                               ; preds = %9
  br label %22

22:                                               ; preds = %21
  %23 = load i64, ptr %4, align 8, !tbaa !3
  %24 = add i64 %23, 1
  store i64 %24, ptr %4, align 8, !tbaa !3
  br label %6, !llvm.loop !133

25:                                               ; preds = %6
  store i16 0, ptr %2, align 2
  store i32 1, ptr %5, align 4
  br label %26

26:                                               ; preds = %25, %16
  call void @llvm.lifetime.end.p0(i64 8, ptr %4) #8
  %27 = load i16, ptr %2, align 2
  ret i16 %27
}

; Function Attrs: nounwind uwtable
define i32 @tls1_set_groups(ptr noundef %0, ptr noundef %1, ptr noundef %2, ptr noundef %3, ptr noundef %4, ptr noundef %5, ptr noundef %6, i64 noundef %7) #1 {
  %9 = alloca i32, align 4
  %10 = alloca ptr, align 8
  %11 = alloca ptr, align 8
  %12 = alloca ptr, align 8
  %13 = alloca ptr, align 8
  %14 = alloca ptr, align 8
  %15 = alloca ptr, align 8
  %16 = alloca ptr, align 8
  %17 = alloca i64, align 8
  %18 = alloca ptr, align 8
  %19 = alloca ptr, align 8
  %20 = alloca ptr, align 8
  %21 = alloca i64, align 8
  %22 = alloca ptr, align 8
  %23 = alloca i64, align 8
  %24 = alloca i64, align 8
  %25 = alloca i32, align 4
  %26 = alloca i64, align 8
  %27 = alloca i16, align 2
  store ptr %0, ptr %10, align 8, !tbaa !134
  store ptr %1, ptr %11, align 8, !tbaa !136
  store ptr %2, ptr %12, align 8, !tbaa !134
  store ptr %3, ptr %13, align 8, !tbaa !136
  store ptr %4, ptr %14, align 8, !tbaa !147
  store ptr %5, ptr %15, align 8, !tbaa !136
  store ptr %6, ptr %16, align 8, !tbaa !151
  store i64 %7, ptr %17, align 8, !tbaa !3
  call void @llvm.lifetime.start.p0(i64 8, ptr %18) #8
  store ptr null, ptr %18, align 8, !tbaa !142
  call void @llvm.lifetime.start.p0(i64 8, ptr %19) #8
  store ptr null, ptr %19, align 8, !tbaa !142
  call void @llvm.lifetime.start.p0(i64 8, ptr %20) #8
  store ptr null, ptr %20, align 8, !tbaa !136
  call void @llvm.lifetime.start.p0(i64 8, ptr %21) #8
  call void @llvm.lifetime.start.p0(i64 8, ptr %22) #8
  store ptr null, ptr %22, align 8, !tbaa !136
  call void @llvm.lifetime.start.p0(i64 8, ptr %23) #8
  store i64 0, ptr %23, align 8, !tbaa !3
  call void @llvm.lifetime.start.p0(i64 8, ptr %24) #8
  store i64 0, ptr %24, align 8, !tbaa !3
  %28 = load i64, ptr %17, align 8, !tbaa !3
  %29 = icmp eq i64 %28, 0
  br i1 %29, label %30, label %31

30:                                               ; preds = %8
  call void @ERR_new()
  call void @ERR_set_debug(ptr noundef @.str.2, i32 noundef 1137, ptr noundef @__func__.tls1_set_groups)
  call void (i32, i32, ptr, ...) @ERR_set_error(i32 noundef 20, i32 noundef 271, ptr noundef null)
  store i32 0, ptr %9, align 4
  store i32 1, ptr %25, align 4
  br label %128

31:                                               ; preds = %8
  %32 = load i64, ptr %17, align 8, !tbaa !3
  %33 = mul i64 %32, 2
  %34 = call noalias ptr @CRYPTO_malloc(i64 noundef %33, ptr noundef @.str.2, i32 noundef 1140)
  store ptr %34, ptr %18, align 8, !tbaa !142
  %35 = icmp eq ptr %34, null
  br i1 %35, label %36, label %37

36:                                               ; preds = %31
  br label %124

37:                                               ; preds = %31
  %38 = call noalias ptr @CRYPTO_malloc(i64 noundef 2, ptr noundef @.str.2, i32 noundef 1142)
  store ptr %38, ptr %19, align 8, !tbaa !142
  %39 = icmp eq ptr %38, null
  br i1 %39, label %40, label %41

40:                                               ; preds = %37
  br label %124

41:                                               ; preds = %37
  %42 = call noalias ptr @CRYPTO_malloc(i64 noundef 8, ptr noundef @.str.2, i32 noundef 1144)
  store ptr %42, ptr %20, align 8, !tbaa !136
  %43 = icmp eq ptr %42, null
  br i1 %43, label %44, label %45

44:                                               ; preds = %41
  br label %124

45:                                               ; preds = %41
  store i64 0, ptr %21, align 8, !tbaa !3
  br label %46

46:                                               ; preds = %96, %45
  %47 = load i64, ptr %21, align 8, !tbaa !3
  %48 = load i64, ptr %17, align 8, !tbaa !3
  %49 = icmp ult i64 %47, %48
  br i1 %49, label %50, label %99

50:                                               ; preds = %46
  call void @llvm.lifetime.start.p0(i64 8, ptr %26) #8
  call void @llvm.lifetime.start.p0(i64 2, ptr %27) #8
  %51 = load ptr, ptr %16, align 8, !tbaa !151
  %52 = load i64, ptr %21, align 8, !tbaa !3
  %53 = getelementptr inbounds nuw i32, ptr %51, i64 %52
  %54 = load i32, ptr %53, align 4, !tbaa !128
  %55 = call zeroext i16 @tls1_nid2group_id(i32 noundef %54)
  store i16 %55, ptr %27, align 2, !tbaa !100
  %56 = load i16, ptr %27, align 2, !tbaa !100
  %57 = zext i16 %56 to i32
  %58 = and i32 %57, 255
  %59 = sext i32 %58 to i64
  %60 = icmp uge i64 %59, 64
  br i1 %60, label %61, label %62

61:                                               ; preds = %50
  store i32 2, ptr %25, align 4
  br label %93

62:                                               ; preds = %50
  %63 = load i16, ptr %27, align 2, !tbaa !100
  %64 = zext i16 %63 to i32
  %65 = and i32 %64, 255
  %66 = zext i32 %65 to i64
  %67 = shl i64 1, %66
  store i64 %67, ptr %26, align 8, !tbaa !3
  %68 = load i16, ptr %27, align 2, !tbaa !100
  %69 = zext i16 %68 to i32
  %70 = icmp slt i32 %69, 256
  br i1 %70, label %71, label %72

71:                                               ; preds = %62
  br label %73

72:                                               ; preds = %62
  br label %73

73:                                               ; preds = %72, %71
  %74 = phi ptr [ %23, %71 ], [ %24, %72 ]
  store ptr %74, ptr %22, align 8, !tbaa !136
  %75 = load i16, ptr %27, align 2, !tbaa !100
  %76 = icmp ne i16 %75, 0
  br i1 %76, label %77, label %83

77:                                               ; preds = %73
  %78 = load ptr, ptr %22, align 8, !tbaa !136
  %79 = load i64, ptr %78, align 8, !tbaa !3
  %80 = load i64, ptr %26, align 8, !tbaa !3
  %81 = and i64 %79, %80
  %82 = icmp ne i64 %81, 0
  br i1 %82, label %83, label %84

83:                                               ; preds = %77, %73
  store i32 2, ptr %25, align 4
  br label %93

84:                                               ; preds = %77
  %85 = load i64, ptr %26, align 8, !tbaa !3
  %86 = load ptr, ptr %22, align 8, !tbaa !136
  %87 = load i64, ptr %86, align 8, !tbaa !3
  %88 = or i64 %87, %85
  store i64 %88, ptr %86, align 8, !tbaa !3
  %89 = load i16, ptr %27, align 2, !tbaa !100
  %90 = load ptr, ptr %18, align 8, !tbaa !142
  %91 = load i64, ptr %21, align 8, !tbaa !3
  %92 = getelementptr inbounds nuw i16, ptr %90, i64 %91
  store i16 %89, ptr %92, align 2, !tbaa !100
  store i32 0, ptr %25, align 4
  br label %93

93:                                               ; preds = %83, %61, %84
  call void @llvm.lifetime.end.p0(i64 2, ptr %27) #8
  call void @llvm.lifetime.end.p0(i64 8, ptr %26) #8
  %94 = load i32, ptr %25, align 4
  switch i32 %94, label %128 [
    i32 0, label %95
    i32 2, label %124
  ]

95:                                               ; preds = %93
  br label %96

96:                                               ; preds = %95
  %97 = load i64, ptr %21, align 8, !tbaa !3
  %98 = add i64 %97, 1
  store i64 %98, ptr %21, align 8, !tbaa !3
  br label %46, !llvm.loop !182

99:                                               ; preds = %46
  %100 = load ptr, ptr %10, align 8, !tbaa !134
  %101 = load ptr, ptr %100, align 8, !tbaa !142
  call void @CRYPTO_free(ptr noundef %101, ptr noundef @.str.2, i32 noundef 1159)
  %102 = load ptr, ptr %12, align 8, !tbaa !134
  %103 = load ptr, ptr %102, align 8, !tbaa !142
  call void @CRYPTO_free(ptr noundef %103, ptr noundef @.str.2, i32 noundef 1160)
  %104 = load ptr, ptr %14, align 8, !tbaa !147
  %105 = load ptr, ptr %104, align 8, !tbaa !136
  call void @CRYPTO_free(ptr noundef %105, ptr noundef @.str.2, i32 noundef 1161)
  %106 = load ptr, ptr %18, align 8, !tbaa !142
  %107 = load ptr, ptr %10, align 8, !tbaa !134
  store ptr %106, ptr %107, align 8, !tbaa !142
  %108 = load i64, ptr %17, align 8, !tbaa !3
  %109 = load ptr, ptr %11, align 8, !tbaa !136
  store i64 %108, ptr %109, align 8, !tbaa !3
  %110 = load ptr, ptr %18, align 8, !tbaa !142
  %111 = getelementptr inbounds i16, ptr %110, i64 0
  %112 = load i16, ptr %111, align 2, !tbaa !100
  %113 = load ptr, ptr %19, align 8, !tbaa !142
  %114 = getelementptr inbounds i16, ptr %113, i64 0
  store i16 %112, ptr %114, align 2, !tbaa !100
  %115 = load ptr, ptr %19, align 8, !tbaa !142
  %116 = load ptr, ptr %12, align 8, !tbaa !134
  store ptr %115, ptr %116, align 8, !tbaa !142
  %117 = load ptr, ptr %13, align 8, !tbaa !136
  store i64 1, ptr %117, align 8, !tbaa !3
  %118 = load i64, ptr %17, align 8, !tbaa !3
  %119 = load ptr, ptr %20, align 8, !tbaa !136
  %120 = getelementptr inbounds i64, ptr %119, i64 0
  store i64 %118, ptr %120, align 8, !tbaa !3
  %121 = load ptr, ptr %20, align 8, !tbaa !136
  %122 = load ptr, ptr %14, align 8, !tbaa !147
  store ptr %121, ptr %122, align 8, !tbaa !136
  %123 = load ptr, ptr %15, align 8, !tbaa !136
  store i64 1, ptr %123, align 8, !tbaa !3
  store i32 1, ptr %9, align 4
  store i32 1, ptr %25, align 4
  br label %128

124:                                              ; preds = %93, %44, %40, %36
  %125 = load ptr, ptr %18, align 8, !tbaa !142
  call void @CRYPTO_free(ptr noundef %125, ptr noundef @.str.2, i32 noundef 1172)
  %126 = load ptr, ptr %19, align 8, !tbaa !142
  call void @CRYPTO_free(ptr noundef %126, ptr noundef @.str.2, i32 noundef 1173)
  %127 = load ptr, ptr %20, align 8, !tbaa !136
  call void @CRYPTO_free(ptr noundef %127, ptr noundef @.str.2, i32 noundef 1174)
  store i32 0, ptr %9, align 4
  store i32 1, ptr %25, align 4
  br label %128

128:                                              ; preds = %124, %99, %93, %30
  call void @llvm.lifetime.end.p0(i64 8, ptr %24) #8
  call void @llvm.lifetime.end.p0(i64 8, ptr %23) #8
  call void @llvm.lifetime.end.p0(i64 8, ptr %22) #8
  call void @llvm.lifetime.end.p0(i64 8, ptr %21) #8
  call void @llvm.lifetime.end.p0(i64 8, ptr %20) #8
  call void @llvm.lifetime.end.p0(i64 8, ptr %19) #8
  call void @llvm.lifetime.end.p0(i64 8, ptr %18) #8
  %129 = load i32, ptr %9, align 4
  ret i32 %129
}